; Function Attrs: mustprogress uwtable
define dso_local void @_ZN9cmCTestVC14GetNightlyTimeB5cxx11Ev(ptr dead_on_unwind noalias writable sret(%"class.std::__cxx11::basic_string") align 8 %0, ptr nocapture noundef nonnull readonly align 8 dereferenceable(388) %1) local_unnamed_addr #3 align 2 personality ptr @__gxx_personality_v0 {
  %3 = alloca %"class.std::__cxx11::basic_string", align 8
  %4 = alloca %"class.std::__cxx11::basic_string", align 8
  %5 = alloca %"class.std::allocator", align 1
  %6 = alloca [1024 x i8], align 16
  %7 = alloca %"class.std::allocator", align 1
  %8 = getelementptr inbounds i8, ptr %1, i64 8
  %9 = load ptr, ptr %8, align 8
  call void @_ZNSaIcEC1Ev(ptr noundef nonnull align 1 dereferenceable(1) %5) #13
  %10 = invoke noundef ptr @_ZNSt7__cxx1112basic_stringIcSt11char_traitsIcESaIcEE13_M_local_dataEv(ptr noundef nonnull align 8 dereferenceable(32) %4)
          to label %.noexc unwind label %38

.noexc:                                           ; preds = %2
  invoke void @_ZNSt7__cxx1112basic_stringIcSt11char_traitsIcESaIcEE12_Alloc_hiderC1EPcRKS3_(ptr noundef nonnull align 8 dereferenceable(8) %4, ptr noundef %10, ptr noundef nonnull align 1 dereferenceable(1) %5)
          to label %.noexc15 unwind label %38

.noexc15:                                         ; preds = %.noexc
  invoke void @_ZNSt7__cxx1112basic_stringIcSt11char_traitsIcESaIcEE12_M_constructIPKcEEvT_S8_St20forward_iterator_tag(ptr noundef nonnull align 8 dereferenceable(32) %4, ptr noundef nonnull @.str.14, ptr noundef nonnull getelementptr inbounds ([17 x i8], ptr @.str.14, i64 0, i64 16))
          to label %_ZNSt7__cxx1112basic_stringIcSt11char_traitsIcESaIcEEC2IS3_EEPKcRKS3_.exit unwind label %11

11:                                               ; preds = %.noexc15
  %12 = landingpad { ptr, i32 }
          cleanup
  call void @_ZNSaIcED2Ev(ptr noundef nonnull align 1 dereferenceable(1) %4) #13
  br label %.body

_ZNSt7__cxx1112basic_stringIcSt11char_traitsIcESaIcEEC2IS3_EEPKcRKS3_.exit: ; preds = %.noexc15
  invoke void @_ZN7cmCTest21GetCTestConfigurationERKNSt7__cxx1112basic_stringIcSt11char_traitsIcESaIcEEE(ptr dead_on_unwind nonnull writable sret(%"class.std::__cxx11::basic_string") align 8 %3, ptr noundef nonnull align 8 dereferenceable(8) %9, ptr noundef nonnull align 8 dereferenceable(32) %4)
          to label %13 unwind label %40

13:                                               ; preds = %_ZNSt7__cxx1112basic_stringIcSt11char_traitsIcESaIcEEC2IS3_EEPKcRKS3_.exit
  %14 = load ptr, ptr %8, align 8
  %15 = invoke noundef zeroext i1 @_ZNK7cmCTest14GetTomorrowTagEv(ptr noundef nonnull align 8 dereferenceable(8) %14)
          to label %16 unwind label %42

16:                                               ; preds = %13
  %17 = invoke noundef ptr @_ZN7cmCTest14GetNightlyTimeERKNSt7__cxx1112basic_stringIcSt11char_traitsIcESaIcEEEb(ptr noundef nonnull align 8 dereferenceable(8) %9, ptr noundef nonnull align 8 dereferenceable(32) %3, i1 noundef zeroext %15)
          to label %18 unwind label %42

18:                                               ; preds = %16
  call void @_ZNSt7__cxx1112basic_stringIcSt11char_traitsIcESaIcEED1Ev(ptr noundef nonnull align 8 dereferenceable(32) %3) #13
  call void @_ZNSt7__cxx1112basic_stringIcSt11char_traitsIcESaIcEED1Ev(ptr noundef nonnull align 8 dereferenceable(32) %4) #13
  call void @_ZNSaIcED1Ev(ptr noundef nonnull align 1 dereferenceable(1) %5) #13
  %19 = getelementptr inbounds i8, ptr %17, i64 20
  %20 = load i32, ptr %19, align 4
  %21 = add nsw i32 %20, 1900
  %22 = getelementptr inbounds i8, ptr %17, i64 16
  %23 = load i32, ptr %22, align 8
  %24 = add nsw i32 %23, 1
  %25 = getelementptr inbounds i8, ptr %17, i64 12
  %26 = load i32, ptr %25, align 4
  %27 = getelementptr inbounds i8, ptr %17, i64 8
  %28 = load i32, ptr %27, align 8
  %29 = getelementptr inbounds i8, ptr %17, i64 4
  %30 = load i32, ptr %29, align 4
  %31 = load i32, ptr %17, align 8
  %32 = call i32 (ptr, i64, ptr, ...) @snprintf(ptr noundef nonnull dereferenceable(1) %6, i64 noundef 1024, ptr noundef nonnull @.str.15, i32 noundef %21, i32 noundef %24, i32 noundef %26, i32 noundef %28, i32 noundef %30, i32 noundef %31) #13
  call void @_ZNSaIcEC1Ev(ptr noundef nonnull align 1 dereferenceable(1) %7) #13
  %33 = invoke noundef ptr @_ZNSt7__cxx1112basic_stringIcSt11char_traitsIcESaIcEE13_M_local_dataEv(ptr noundef nonnull align 8 dereferenceable(32) %0)
          to label %.noexc16 unwind label %45

.noexc16:                                         ; preds = %18
  invoke void @_ZNSt7__cxx1112basic_stringIcSt11char_traitsIcESaIcEE12_Alloc_hiderC1EPcRKS3_(ptr noundef nonnull align 8 dereferenceable(8) %0, ptr noundef %33, ptr noundef nonnull align 1 dereferenceable(1) %7)
          to label %.noexc17 unwind label %45

.noexc17:                                         ; preds = %.noexc16
  %34 = call noundef i64 @strlen(ptr noundef nonnull dereferenceable(1) %6) #13
  %35 = getelementptr inbounds i8, ptr %6, i64 %34
  invoke void @_ZNSt7__cxx1112basic_stringIcSt11char_traitsIcESaIcEE12_M_constructIPKcEEvT_S8_St20forward_iterator_tag(ptr noundef nonnull align 8 dereferenceable(32) %0, ptr noundef nonnull %6, ptr noundef nonnull %35)
          to label %_ZNSt7__cxx1112basic_stringIcSt11char_traitsIcESaIcEEC2IS3_EEPKcRKS3_.exit20 unwind label %36

36:                                               ; preds = %.noexc17
  %37 = landingpad { ptr, i32 }
          cleanup
  call void @_ZNSaIcED2Ev(ptr noundef nonnull align 1 dereferenceable(1) %0) #13
  br label %.body

_ZNSt7__cxx1112basic_stringIcSt11char_traitsIcESaIcEEC2IS3_EEPKcRKS3_.exit20: ; preds = %.noexc17
  call void @_ZNSaIcED1Ev(ptr noundef nonnull align 1 dereferenceable(1) %7) #13
  ret void

38:                                               ; preds = %.noexc, %2
  %39 = landingpad { ptr, i32 }
          cleanup
  br label %.body

40:                                               ; preds = %_ZNSt7__cxx1112basic_stringIcSt11char_traitsIcESaIcEEC2IS3_EEPKcRKS3_.exit
  %41 = landingpad { ptr, i32 }
          cleanup
  br label %44

42:                                               ; preds = %16, %13
  %43 = landingpad { ptr, i32 }
          cleanup
  call void @_ZNSt7__cxx1112basic_stringIcSt11char_traitsIcESaIcEED1Ev(ptr noundef nonnull align 8 dereferenceable(32) %3) #13
  br label %44

44:                                               ; preds = %42, %40
  %.pn = phi { ptr, i32 } [ %43, %42 ], [ %41, %40 ]
  call void @_ZNSt7__cxx1112basic_stringIcSt11char_traitsIcESaIcEED1Ev(ptr noundef nonnull align 8 dereferenceable(32) %4) #13
  br label %.body

45:                                               ; preds = %.noexc16, %18
  %46 = landingpad { ptr, i32 }
          cleanup
  br label %.body

.body:                                            ; preds = %45, %36, %44, %11, %38
  %.sink = phi ptr [ %5, %38 ], [ %5, %11 ], [ %5, %44 ], [ %7, %36 ], [ %7, %45 ]
  %.pn13 = phi { ptr, i32 } [ %39, %38 ], [ %12, %11 ], [ %.pn, %44 ], [ %37, %36 ], [ %46, %45 ]
  call void @_ZNSaIcED1Ev(ptr noundef nonnull align 1 dereferenceable(1) %.sink) #13
  resume { ptr, i32 } %.pn13
}